target datalayout = "e-m:e-p270:32:32-p271:32:32-p272:64:64-i64:64-i128:128-f80:128-n8:16:32:64-S128"
target triple = "x86_64-pc-linux-gnu"

%struct._zval_struct = type { %union._zend_value, %union.anon.3, %union.anon.6 }
%union._zend_value = type { i64 }
%union.anon.3 = type { i32 }
%union.anon.6 = type { i32 }
%struct._zend_execute_data = type { ptr, ptr, ptr, ptr, %struct._zval_struct, ptr, ptr, ptr, ptr }
%struct.anon.4 = type { i8, i8, %union.anon.5 }
%union.anon.5 = type { i16 }

; Function Attrs: alwaysinline nounwind uwtable
define internal zeroext i8 @zval_get_type(ptr noundef %0) #6 {
  %2 = alloca ptr, align 8
  store ptr %0, ptr %2, align 8, !tbaa !37
  %3 = load ptr, ptr %2, align 8, !tbaa !37
  %4 = getelementptr inbounds nuw %struct._zval_struct, ptr %3, i32 0, i32 1
  %5 = getelementptr inbounds nuw %struct.anon.4, ptr %4, i32 0, i32 0
  %6 = load i8, ptr %5, align 8, !tbaa !38
  ret i8 %6
}

; Function Attrs: alwaysinline nounwind uwtable
define internal zeroext i1 @zend_parse_arg_str_ex(ptr noundef %0, ptr noundef %1, i1 noundef zeroext %2, i32 noundef %3, i1 noundef zeroext %4) #6 {
  %6 = alloca i1, align 1
  %7 = alloca ptr, align 8
  %8 = alloca ptr, align 8
  %9 = alloca i8, align 1
  %10 = alloca i32, align 4
  %11 = alloca i8, align 1
  store ptr %0, ptr %7, align 8, !tbaa !37
  store ptr %1, ptr %8, align 8, !tbaa !53
  %12 = zext i1 %2 to i8
  store i8 %12, ptr %9, align 1, !tbaa !40
  store i32 %3, ptr %10, align 4, !tbaa !4
  %13 = zext i1 %4 to i8
  store i8 %13, ptr %11, align 1, !tbaa !40
  %14 = load ptr, ptr %7, align 8, !tbaa !37
  %15 = call zeroext i8 @zval_get_type(ptr noundef %14)
  %16 = zext i8 %15 to i32
  %17 = icmp eq i32 %16, 6
  %18 = xor i1 %17, true
  %19 = xor i1 %18, true
  %20 = zext i1 %19 to i32
  %21 = sext i32 %20 to i64
  %22 = call i64 @llvm.expect.i64(i64 %21, i64 1)
  %23 = icmp ne i64 %22, 0
  br i1 %23, label %24, label %29

24:                                               ; preds = %5
  %25 = load ptr, ptr %7, align 8, !tbaa !37
  %26 = getelementptr inbounds nuw %struct._zval_struct, ptr %25, i32 0, i32 0
  %27 = load ptr, ptr %26, align 8, !tbaa !38
  %28 = load ptr, ptr %8, align 8, !tbaa !53
  store ptr %27, ptr %28, align 8, !tbaa !48
  br label %53

29:                                               ; preds = %5
  %30 = load i8, ptr %9, align 1, !tbaa !40, !range !41, !noundef !42
  %31 = trunc i8 %30 to i1
  br i1 %31, label %32, label %39

32:                                               ; preds = %29
  %33 = load ptr, ptr %7, align 8, !tbaa !37
  %34 = call zeroext i8 @zval_get_type(ptr noundef %33)
  %35 = zext i8 %34 to i32
  %36 = icmp eq i32 %35, 1
  br i1 %36, label %37, label %39

37:                                               ; preds = %32
  %38 = load ptr, ptr %8, align 8, !tbaa !53
  store ptr null, ptr %38, align 8, !tbaa !48
  br label %52

39:                                               ; preds = %32, %29
  %40 = load i8, ptr %11, align 1, !tbaa !40, !range !41, !noundef !42
  %41 = trunc i8 %40 to i1
  br i1 %41, label %42, label %47

42:                                               ; preds = %39
  %43 = load ptr, ptr %7, align 8, !tbaa !37
  %44 = load ptr, ptr %8, align 8, !tbaa !53
  %45 = load i32, ptr %10, align 4, !tbaa !4
  %46 = call zeroext i1 @zend_flf_parse_arg_str_slow(ptr noundef %43, ptr noundef %44, i32 noundef %45)
  store i1 %46, ptr %6, align 1
  br label %54

47:                                               ; preds = %39
  %48 = load ptr, ptr %7, align 8, !tbaa !37
  %49 = load ptr, ptr %8, align 8, !tbaa !53
  %50 = load i32, ptr %10, align 4, !tbaa !4
  %51 = call zeroext i1 @zend_parse_arg_str_slow(ptr noundef %48, ptr noundef %49, i32 noundef %50)
  store i1 %51, ptr %6, align 1
  br label %54

52:                                               ; preds = %37
  br label %53

53:                                               ; preds = %52, %24
  store i1 true, ptr %6, align 1
  br label %54

54:                                               ; preds = %53, %47, %42
  %55 = load i1, ptr %6, align 1
  ret i1 %55
}

; Function Attrs: alwaysinline nounwind uwtable
define internal zeroext i1 @zend_parse_arg_long_ex(ptr noundef %0, ptr noundef %1, ptr noundef %2, i1 noundef zeroext %3, i32 noundef %4, i1 noundef zeroext %5) #6 {
  %7 = alloca i1, align 1
  %8 = alloca ptr, align 8
  %9 = alloca ptr, align 8
  %10 = alloca ptr, align 8
  %11 = alloca i8, align 1
  %12 = alloca i32, align 4
  %13 = alloca i8, align 1
  store ptr %0, ptr %8, align 8, !tbaa !37
  store ptr %1, ptr %9, align 8, !tbaa !46
  store ptr %2, ptr %10, align 8, !tbaa !51
  %14 = zext i1 %3 to i8
  store i8 %14, ptr %11, align 1, !tbaa !40
  store i32 %4, ptr %12, align 4, !tbaa !4
  %15 = zext i1 %5 to i8
  store i8 %15, ptr %13, align 1, !tbaa !40
  %16 = load i8, ptr %11, align 1, !tbaa !40, !range !41, !noundef !42
  %17 = trunc i8 %16 to i1
  br i1 %17, label %18, label %20

18:                                               ; preds = %6
  %19 = load ptr, ptr %10, align 8, !tbaa !51
  store i8 0, ptr %19, align 1, !tbaa !40
  br label %20

20:                                               ; preds = %18, %6
  %21 = load ptr, ptr %8, align 8, !tbaa !37
  %22 = call zeroext i8 @zval_get_type(ptr noundef %21)
  %23 = zext i8 %22 to i32
  %24 = icmp eq i32 %23, 4
  %25 = xor i1 %24, true
  %26 = xor i1 %25, true
  %27 = zext i1 %26 to i32
  %28 = sext i32 %27 to i64
  %29 = call i64 @llvm.expect.i64(i64 %28, i64 1)
  %30 = icmp ne i64 %29, 0
  br i1 %30, label %31, label %36

31:                                               ; preds = %20
  %32 = load ptr, ptr %8, align 8, !tbaa !37
  %33 = getelementptr inbounds nuw %struct._zval_struct, ptr %32, i32 0, i32 0
  %34 = load i64, ptr %33, align 8, !tbaa !38
  %35 = load ptr, ptr %9, align 8, !tbaa !46
  store i64 %34, ptr %35, align 8, !tbaa !43
  br label %61

36:                                               ; preds = %20
  %37 = load i8, ptr %11, align 1, !tbaa !40, !range !41, !noundef !42
  %38 = trunc i8 %37 to i1
  br i1 %38, label %39, label %47

39:                                               ; preds = %36
  %40 = load ptr, ptr %8, align 8, !tbaa !37
  %41 = call zeroext i8 @zval_get_type(ptr noundef %40)
  %42 = zext i8 %41 to i32
  %43 = icmp eq i32 %42, 1
  br i1 %43, label %44, label %47

44:                                               ; preds = %39
  %45 = load ptr, ptr %10, align 8, !tbaa !51
  store i8 1, ptr %45, align 1, !tbaa !40
  %46 = load ptr, ptr %9, align 8, !tbaa !46
  store i64 0, ptr %46, align 8, !tbaa !43
  br label %60

47:                                               ; preds = %39, %36
  %48 = load i8, ptr %13, align 1, !tbaa !40, !range !41, !noundef !42
  %49 = trunc i8 %48 to i1
  br i1 %49, label %50, label %55

50:                                               ; preds = %47
  %51 = load ptr, ptr %8, align 8, !tbaa !37
  %52 = load ptr, ptr %9, align 8, !tbaa !46
  %53 = load i32, ptr %12, align 4, !tbaa !4
  %54 = call zeroext i1 @zend_flf_parse_arg_long_slow(ptr noundef %51, ptr noundef %52, i32 noundef %53)
  store i1 %54, ptr %7, align 1
  br label %62

55:                                               ; preds = %47
  %56 = load ptr, ptr %8, align 8, !tbaa !37
  %57 = load ptr, ptr %9, align 8, !tbaa !46
  %58 = load i32, ptr %12, align 4, !tbaa !4
  %59 = call zeroext i1 @zend_parse_arg_long_slow(ptr noundef %56, ptr noundef %57, i32 noundef %58)
  store i1 %59, ptr %7, align 1
  br label %62

60:                                               ; preds = %44
  br label %61

61:                                               ; preds = %60, %31
  store i1 true, ptr %7, align 1
  br label %62

62:                                               ; preds = %61, %55, %50
  %63 = load i1, ptr %7, align 1
  ret i1 %63
}

; Function Attrs: alwaysinline nounwind uwtable
define internal zeroext i1 @zend_parse_arg_str(ptr noundef %0, ptr noundef %1, i1 noundef zeroext %2, i32 noundef %3) #6 {
  %5 = alloca ptr, align 8
  %6 = alloca ptr, align 8
  %7 = alloca i8, align 1
  %8 = alloca i32, align 4
  store ptr %0, ptr %5, align 8, !tbaa !37
  store ptr %1, ptr %6, align 8, !tbaa !53
  %9 = zext i1 %2 to i8
  store i8 %9, ptr %7, align 1, !tbaa !40
  store i32 %3, ptr %8, align 4, !tbaa !4
  %10 = load ptr, ptr %5, align 8, !tbaa !37
  %11 = load ptr, ptr %6, align 8, !tbaa !53
  %12 = load i8, ptr %7, align 1, !tbaa !40, !range !41, !noundef !42
  %13 = trunc i8 %12 to i1
  %14 = load i32, ptr %8, align 4, !tbaa !4
  %15 = call zeroext i1 @zend_parse_arg_str_ex(ptr noundef %10, ptr noundef %11, i1 noundef zeroext %13, i32 noundef %14, i1 noundef zeroext false)
  ret i1 %15
}

; Function Attrs: alwaysinline nounwind uwtable
define internal zeroext i1 @zend_parse_arg_long(ptr noundef %0, ptr noundef %1, ptr noundef %2, i1 noundef zeroext %3, i32 noundef %4) #6 {
  %6 = alloca ptr, align 8
  %7 = alloca ptr, align 8
  %8 = alloca ptr, align 8
  %9 = alloca i8, align 1
  %10 = alloca i32, align 4
  store ptr %0, ptr %6, align 8, !tbaa !37
  store ptr %1, ptr %7, align 8, !tbaa !46
  store ptr %2, ptr %8, align 8, !tbaa !51
  %11 = zext i1 %3 to i8
  store i8 %11, ptr %9, align 1, !tbaa !40
  store i32 %4, ptr %10, align 4, !tbaa !4
  %12 = load ptr, ptr %6, align 8, !tbaa !37
  %13 = load ptr, ptr %7, align 8, !tbaa !46
  %14 = load ptr, ptr %8, align 8, !tbaa !51
  %15 = load i8, ptr %9, align 1, !tbaa !40, !range !41, !noundef !42
  %16 = trunc i8 %15 to i1
  %17 = load i32, ptr %10, align 4, !tbaa !4
  %18 = call zeroext i1 @zend_parse_arg_long_ex(ptr noundef %12, ptr noundef %13, ptr noundef %14, i1 noundef zeroext %16, i32 noundef %17, i1 noundef zeroext false)
  ret i1 %18
}

; Function Attrs: nounwind uwtable
define hidden void @zif_syslog(ptr noundef %0, ptr noundef %1) #0 {
  %3 = alloca ptr, align 8
  %4 = alloca ptr, align 8
  %5 = alloca i64, align 8
  %6 = alloca ptr, align 8
  %7 = alloca i32, align 4
  %8 = alloca i32, align 4
  %9 = alloca i32, align 4
  %10 = alloca i32, align 4
  %11 = alloca i32, align 4
  %12 = alloca ptr, align 8
  %13 = alloca ptr, align 8
  %14 = alloca i32, align 4
  %15 = alloca ptr, align 8
  %16 = alloca i8, align 1
  %17 = alloca i8, align 1
  %18 = alloca i32, align 4
  %19 = alloca i32, align 4
  store ptr %0, ptr %3, align 8, !tbaa !35
  store ptr %1, ptr %4, align 8, !tbaa !37
  call void @llvm.lifetime.start.p0(i64 8, ptr %5) #7
  call void @llvm.lifetime.start.p0(i64 8, ptr %6) #7
  br label %20

20:                                               ; preds = %2
  call void @llvm.lifetime.start.p0(i64 4, ptr %7) #7
  store i32 0, ptr %7, align 4, !tbaa !4
  call void @llvm.lifetime.start.p0(i64 4, ptr %8) #7
  store i32 2, ptr %8, align 4, !tbaa !4
  call void @llvm.lifetime.start.p0(i64 4, ptr %9) #7
  store i32 2, ptr %9, align 4, !tbaa !4
  call void @llvm.lifetime.start.p0(i64 4, ptr %10) #7
  %21 = load ptr, ptr %3, align 8, !tbaa !35
  %22 = getelementptr inbounds nuw %struct._zend_execute_data, ptr %21, i32 0, i32 4
  %23 = getelementptr inbounds nuw %struct._zval_struct, ptr %22, i32 0, i32 2
  %24 = load i32, ptr %23, align 4, !tbaa !38
  store i32 %24, ptr %10, align 4, !tbaa !4
  call void @llvm.lifetime.start.p0(i64 4, ptr %11) #7
  store i32 0, ptr %11, align 4, !tbaa !4
  call void @llvm.lifetime.start.p0(i64 8, ptr %12) #7
  call void @llvm.lifetime.start.p0(i64 8, ptr %13) #7
  store ptr null, ptr %13, align 8, !tbaa !37
  call void @llvm.lifetime.start.p0(i64 4, ptr %14) #7
  store i32 0, ptr %14, align 4, !tbaa !4
  call void @llvm.lifetime.start.p0(i64 8, ptr %15) #7
  store ptr null, ptr %15, align 8, !tbaa !39
  call void @llvm.lifetime.start.p0(i64 1, ptr %16) #7
  store i8 0, ptr %16, align 1, !tbaa !40
  call void @llvm.lifetime.start.p0(i64 1, ptr %17) #7
  store i8 0, ptr %17, align 1, !tbaa !40
  call void @llvm.lifetime.start.p0(i64 4, ptr %18) #7
  store i32 0, ptr %18, align 4, !tbaa !4
  br label %25

25:                                               ; preds = %20
  %26 = load i32, ptr %10, align 4, !tbaa !4
  %27 = load i32, ptr %8, align 4, !tbaa !4
  %28 = icmp ult i32 %26, %27
  %29 = xor i1 %28, true
  %30 = xor i1 %29, true
  %31 = zext i1 %30 to i32
  %32 = sext i32 %31 to i64
  %33 = call i64 @llvm.expect.i64(i64 %32, i64 0)
  %34 = icmp ne i64 %33, 0
  br i1 %34, label %45, label %35

35:                                               ; preds = %25
  %36 = load i32, ptr %10, align 4, !tbaa !4
  %37 = load i32, ptr %9, align 4, !tbaa !4
  %38 = icmp ugt i32 %36, %37
  %39 = xor i1 %38, true
  %40 = xor i1 %39, true
  %41 = zext i1 %40 to i32
  %42 = sext i32 %41 to i64
  %43 = call i64 @llvm.expect.i64(i64 %42, i64 0)
  %44 = icmp ne i64 %43, 0
  br i1 %44, label %45, label %48

45:                                               ; preds = %35, %25
  %46 = load i32, ptr %8, align 4, !tbaa !4
  %47 = load i32, ptr %9, align 4, !tbaa !4
  call void @zend_wrong_parameters_count_error(i32 noundef %46, i32 noundef %47)
  store i32 1, ptr %18, align 4, !tbaa !4
  br label %164

48:                                               ; preds = %35
  %49 = load ptr, ptr %3, align 8, !tbaa !35
  %50 = getelementptr inbounds %struct._zval_struct, ptr %49, i64 4
  store ptr %50, ptr %12, align 8, !tbaa !37
  %51 = load i32, ptr %11, align 4, !tbaa !4
  %52 = add i32 %51, 1
  store i32 %52, ptr %11, align 4, !tbaa !4
  %53 = load i32, ptr %11, align 4, !tbaa !4
  %54 = load i32, ptr %8, align 4, !tbaa !4
  %55 = icmp ule i32 %53, %54
  br i1 %55, label %61, label %56

56:                                               ; preds = %48
  %57 = load i8, ptr %17, align 1, !tbaa !40, !range !41, !noundef !42
  %58 = trunc i8 %57 to i1
  %59 = zext i1 %58 to i32
  %60 = icmp eq i32 %59, 1
  br label %61

61:                                               ; preds = %56, %48
  %62 = phi i1 [ true, %48 ], [ %60, %56 ]
  call void @llvm.assume(i1 %62)
  %63 = load i32, ptr %11, align 4, !tbaa !4
  %64 = load i32, ptr %8, align 4, !tbaa !4
  %65 = icmp ugt i32 %63, %64
  br i1 %65, label %71, label %66

66:                                               ; preds = %61
  %67 = load i8, ptr %17, align 1, !tbaa !40, !range !41, !noundef !42
  %68 = trunc i8 %67 to i1
  %69 = zext i1 %68 to i32
  %70 = icmp eq i32 %69, 0
  br label %71

71:                                               ; preds = %66, %61
  %72 = phi i1 [ true, %61 ], [ %70, %66 ]
  call void @llvm.assume(i1 %72)
  %73 = load i8, ptr %17, align 1, !tbaa !40, !range !41, !noundef !42
  %74 = trunc i8 %73 to i1
  br i1 %74, label %75, label %87

75:                                               ; preds = %71
  %76 = load i32, ptr %11, align 4, !tbaa !4
  %77 = load i32, ptr %10, align 4, !tbaa !4
  %78 = icmp ugt i32 %76, %77
  %79 = xor i1 %78, true
  %80 = xor i1 %79, true
  %81 = zext i1 %80 to i32
  %82 = sext i32 %81 to i64
  %83 = call i64 @llvm.expect.i64(i64 %82, i64 0)
  %84 = icmp ne i64 %83, 0
  br i1 %84, label %85, label %86

85:                                               ; preds = %75
  br label %164

86:                                               ; preds = %75
  br label %87

87:                                               ; preds = %86, %71
  %88 = load ptr, ptr %12, align 8, !tbaa !37
  %89 = getelementptr inbounds nuw %struct._zval_struct, ptr %88, i32 1
  store ptr %89, ptr %12, align 8, !tbaa !37
  %90 = load ptr, ptr %12, align 8, !tbaa !37
  store ptr %90, ptr %13, align 8, !tbaa !37
  %91 = load ptr, ptr %13, align 8, !tbaa !37
  %92 = load i32, ptr %11, align 4, !tbaa !4
  %93 = call zeroext i1 @zend_parse_arg_long(ptr noundef %91, ptr noundef %5, ptr noundef %16, i1 noundef zeroext false, i32 noundef %92)
  %94 = xor i1 %93, true
  %95 = xor i1 %94, true
  %96 = xor i1 %95, true
  %97 = zext i1 %96 to i32
  %98 = sext i32 %97 to i64
  %99 = call i64 @llvm.expect.i64(i64 %98, i64 0)
  %100 = icmp ne i64 %99, 0
  br i1 %100, label %101, label %102

101:                                              ; preds = %87
  store i32 0, ptr %14, align 4, !tbaa !4
  store i32 9, ptr %18, align 4, !tbaa !4
  br label %164

102:                                              ; preds = %87
  %103 = load i32, ptr %11, align 4, !tbaa !4
  %104 = add i32 %103, 1
  store i32 %104, ptr %11, align 4, !tbaa !4
  %105 = load i32, ptr %11, align 4, !tbaa !4
  %106 = load i32, ptr %8, align 4, !tbaa !4
  %107 = icmp ule i32 %105, %106
  br i1 %107, label %113, label %108

108:                                              ; preds = %102
  %109 = load i8, ptr %17, align 1, !tbaa !40, !range !41, !noundef !42
  %110 = trunc i8 %109 to i1
  %111 = zext i1 %110 to i32
  %112 = icmp eq i32 %111, 1
  br label %113

113:                                              ; preds = %108, %102
  %114 = phi i1 [ true, %102 ], [ %112, %108 ]
  call void @llvm.assume(i1 %114)
  %115 = load i32, ptr %11, align 4, !tbaa !4
  %116 = load i32, ptr %8, align 4, !tbaa !4
  %117 = icmp ugt i32 %115, %116
  br i1 %117, label %123, label %118

118:                                              ; preds = %113
  %119 = load i8, ptr %17, align 1, !tbaa !40, !range !41, !noundef !42
  %120 = trunc i8 %119 to i1
  %121 = zext i1 %120 to i32
  %122 = icmp eq i32 %121, 0
  br label %123

123:                                              ; preds = %118, %113
  %124 = phi i1 [ true, %113 ], [ %122, %118 ]
  call void @llvm.assume(i1 %124)
  %125 = load i8, ptr %17, align 1, !tbaa !40, !range !41, !noundef !42
  %126 = trunc i8 %125 to i1
  br i1 %126, label %127, label %139

127:                                              ; preds = %123
  %128 = load i32, ptr %11, align 4, !tbaa !4
  %129 = load i32, ptr %10, align 4, !tbaa !4
  %130 = icmp ugt i32 %128, %129
  %131 = xor i1 %130, true
  %132 = xor i1 %131, true
  %133 = zext i1 %132 to i32
  %134 = sext i32 %133 to i64
  %135 = call i64 @llvm.expect.i64(i64 %134, i64 0)
  %136 = icmp ne i64 %135, 0
  br i1 %136, label %137, label %138

137:                                              ; preds = %127
  br label %164

138:                                              ; preds = %127
  br label %139

139:                                              ; preds = %138, %123
  %140 = load ptr, ptr %12, align 8, !tbaa !37
  %141 = getelementptr inbounds nuw %struct._zval_struct, ptr %140, i32 1
  store ptr %141, ptr %12, align 8, !tbaa !37
  %142 = load ptr, ptr %12, align 8, !tbaa !37
  store ptr %142, ptr %13, align 8, !tbaa !37
  %143 = load ptr, ptr %13, align 8, !tbaa !37
  %144 = load i32, ptr %11, align 4, !tbaa !4
  %145 = call zeroext i1 @zend_parse_arg_str(ptr noundef %143, ptr noundef %6, i1 noundef zeroext false, i32 noundef %144)
  %146 = xor i1 %145, true
  %147 = xor i1 %146, true
  %148 = xor i1 %147, true
  %149 = zext i1 %148 to i32
  %150 = sext i32 %149 to i64
  %151 = call i64 @llvm.expect.i64(i64 %150, i64 0)
  %152 = icmp ne i64 %151, 0
  br i1 %152, label %153, label %154

153:                                              ; preds = %139
  store i32 4, ptr %14, align 4, !tbaa !4
  store i32 9, ptr %18, align 4, !tbaa !4
  br label %164

154:                                              ; preds = %139
  %155 = load i32, ptr %11, align 4, !tbaa !4
  %156 = load i32, ptr %9, align 4, !tbaa !4
  %157 = icmp eq i32 %155, %156
  br i1 %157, label %161, label %158

158:                                              ; preds = %154
  %159 = load i32, ptr %9, align 4, !tbaa !4
  %160 = icmp eq i32 %159, -1
  br label %161

161:                                              ; preds = %158, %154
  %162 = phi i1 [ true, %154 ], [ %160, %158 ]
  call void @llvm.assume(i1 %162)
  br label %163

163:                                              ; preds = %161
  br label %164

164:                                              ; preds = %163, %153, %137, %101, %85, %45
  %165 = load i32, ptr %18, align 4, !tbaa !4
  %166 = icmp ne i32 %165, 0
  %167 = xor i1 %166, true
  %168 = xor i1 %167, true
  %169 = zext i1 %168 to i32
  %170 = sext i32 %169 to i64
  %171 = call i64 @llvm.expect.i64(i64 %170, i64 0)
  %172 = icmp ne i64 %171, 0
  br i1 %172, label %173, label %179

173:                                              ; preds = %164
  %174 = load i32, ptr %18, align 4, !tbaa !4
  %175 = load i32, ptr %11, align 4, !tbaa !4
  %176 = load ptr, ptr %15, align 8, !tbaa !39
  %177 = load i32, ptr %14, align 4, !tbaa !4
  %178 = load ptr, ptr %13, align 8, !tbaa !37
  call void @zend_wrong_parameter_error(i32 noundef %174, i32 noundef %175, ptr noundef %176, i32 noundef %177, ptr noundef %178)
  store i32 1, ptr %19, align 4
  br label %180

179:                                              ; preds = %164
  store i32 0, ptr %19, align 4
  br label %180

180:                                              ; preds = %179, %173
  call void @llvm.lifetime.end.p0(i64 4, ptr %18) #7
  call void @llvm.lifetime.end.p0(i64 1, ptr %17) #7
  call void @llvm.lifetime.end.p0(i64 1, ptr %16) #7
  call void @llvm.lifetime.end.p0(i64 8, ptr %15) #7
  call void @llvm.lifetime.end.p0(i64 4, ptr %14) #7
  call void @llvm.lifetime.end.p0(i64 8, ptr %13) #7
  call void @llvm.lifetime.end.p0(i64 8, ptr %12) #7
  call void @llvm.lifetime.end.p0(i64 4, ptr %11) #7
  call void @llvm.lifetime.end.p0(i64 4, ptr %10) #7
  call void @llvm.lifetime.end.p0(i64 4, ptr %9) #7
  call void @llvm.lifetime.end.p0(i64 4, ptr %8) #7
  call void @llvm.lifetime.end.p0(i64 4, ptr %7) #7
  %181 = load i32, ptr %19, align 4
  switch i32 %181, label %196 [
    i32 0, label %182
  ]

182:                                              ; preds = %180
  br label %183

183:                                              ; preds = %182
  br label %184

184:                                              ; preds = %183
  %185 = load i64, ptr %5, align 8, !tbaa !43
  %186 = trunc i64 %185 to i32
  %187 = load ptr, ptr %6, align 8, !tbaa !48
  call void @php_syslog_str(i32 noundef %186, ptr noundef %187)
  br label %188

188:                                              ; preds = %184
  br label %189

189:                                              ; preds = %188
  %190 = load ptr, ptr %4, align 8, !tbaa !37
  %191 = getelementptr inbounds nuw %struct._zval_struct, ptr %190, i32 0, i32 1
  store i32 3, ptr %191, align 8, !tbaa !38
  br label %192

192:                                              ; preds = %189
  br label %193

193:                                              ; preds = %192
  store i32 1, ptr %19, align 4
  br label %196

194:                                              ; No predecessors!
  br label %195

195:                                              ; preds = %194
  store i32 0, ptr %19, align 4
  br label %196

196:                                              ; preds = %195, %193, %180
  call void @llvm.lifetime.end.p0(i64 8, ptr %6) #7
  call void @llvm.lifetime.end.p0(i64 8, ptr %5) #7
  %197 = load i32, ptr %19, align 4
  switch i32 %197, label %199 [
    i32 0, label %198
    i32 1, label %198
  ]

198:                                              ; preds = %196, %196
  ret void

199:                                              ; preds = %196
  unreachable
}