; Function Attrs: nounwind uwtable
define hidden void @zif_syslog(ptr noundef %0, ptr noundef writeonly captures(none) %1) local_unnamed_addr #1 {
  %3 = alloca i64, align 8
  %4 = alloca ptr, align 8
  call void @llvm.lifetime.start.p0(i64 8, ptr nonnull %3) #5
  call void @llvm.lifetime.start.p0(i64 8, ptr nonnull %4) #5
  %5 = getelementptr inbounds nuw i8, ptr %0, i64 44
  %6 = load i32, ptr %5, align 4, !tbaa !34
  %.not = icmp eq i32 %6, 2
  br i1 %.not, label %8, label %7, !prof !35

7:                                                ; preds = %2
  tail call void @zend_wrong_parameters_count_error(i32 noundef 2, i32 noundef 2) #5
  br label %.thread66

8:                                                ; preds = %2
  %9 = getelementptr inbounds nuw i8, ptr %0, i64 80
  %10 = getelementptr inbounds nuw i8, ptr %0, i64 88
  %11 = load i8, ptr %10, align 8, !tbaa !34
  %12 = icmp eq i8 %11, 4
  br i1 %12, label %zend_parse_arg_long_ex.exit.thread, label %zend_parse_arg_long_ex.exit, !prof !36

zend_parse_arg_long_ex.exit.thread:               ; preds = %8
  %13 = load i64, ptr %9, align 8, !tbaa !34
  store i64 %13, ptr %3, align 8, !tbaa !40
  br label %15

zend_parse_arg_long_ex.exit:                      ; preds = %8
  %14 = call zeroext i1 @zend_parse_arg_long_slow(ptr noundef nonnull %9, ptr noundef nonnull %3, i32 noundef 1) #5
  br i1 %14, label %15, label %.thread66, !prof !41

15:                                               ; preds = %zend_parse_arg_long_ex.exit.thread, %zend_parse_arg_long_ex.exit
  %16 = getelementptr inbounds nuw i8, ptr %0, i64 96
  %17 = getelementptr inbounds nuw i8, ptr %0, i64 104
  %18 = load i8, ptr %17, align 8, !tbaa !34
  %19 = icmp eq i8 %18, 6
  br i1 %19, label %.thread76, label %zend_parse_arg_str_ex.exit, !prof !36

.thread76:                                        ; preds = %15
  %20 = load ptr, ptr %16, align 8, !tbaa !34
  store ptr %20, ptr %4, align 8, !tbaa !43
  br label %.critedge

zend_parse_arg_str_ex.exit:                       ; preds = %15
  %21 = call zeroext i1 @zend_parse_arg_str_slow(ptr noundef nonnull %16, ptr noundef nonnull %4, i32 noundef 2) #5
  %cond.fr56 = freeze i1 %21
  br i1 %cond.fr56, label %zend_parse_arg_str_ex.exit..critedge_crit_edge, label %.thread66, !prof !41

zend_parse_arg_str_ex.exit..critedge_crit_edge:   ; preds = %zend_parse_arg_str_ex.exit
  %.pre = load ptr, ptr %4, align 8, !tbaa !43
  br label %.critedge

.thread66:                                        ; preds = %zend_parse_arg_str_ex.exit, %zend_parse_arg_long_ex.exit, %7
  %.04675 = phi i32 [ 9, %zend_parse_arg_long_ex.exit ], [ 1, %7 ], [ 9, %zend_parse_arg_str_ex.exit ]
  %.04774 = phi i32 [ 1, %zend_parse_arg_long_ex.exit ], [ 0, %7 ], [ 2, %zend_parse_arg_str_ex.exit ]
  %.04873 = phi i32 [ 0, %zend_parse_arg_long_ex.exit ], [ 0, %7 ], [ 4, %zend_parse_arg_str_ex.exit ]
  %.04972 = phi ptr [ %9, %zend_parse_arg_long_ex.exit ], [ null, %7 ], [ %16, %zend_parse_arg_str_ex.exit ]
  call void @zend_wrong_parameter_error(i32 noundef %.04675, i32 noundef %.04774, ptr noundef null, i32 noundef %.04873, ptr noundef %.04972) #5
  br label %26

.critedge:                                        ; preds = %zend_parse_arg_str_ex.exit..critedge_crit_edge, %.thread76
  %22 = phi ptr [ %.pre, %zend_parse_arg_str_ex.exit..critedge_crit_edge ], [ %20, %.thread76 ]
  %23 = load i64, ptr %3, align 8, !tbaa !40
  %24 = trunc i64 %23 to i32
  call void @php_syslog_str(i32 noundef %24, ptr noundef %22) #5
  %25 = getelementptr inbounds nuw i8, ptr %1, i64 8
  store i32 3, ptr %25, align 8, !tbaa !34
  br label %26

26:                                               ; preds = %.thread66, %.critedge
  call void @llvm.lifetime.end.p0(i64 8, ptr nonnull %4) #5
  call void @llvm.lifetime.end.p0(i64 8, ptr nonnull %3) #5
  ret void
}